; Function Attrs: mustprogress uwtable
define internal fastcc void @_ZN7testing8internalL13CaptureStreamEiPKcPPNS0_14CapturedStreamE(i32 noundef range(i32 1, 3) %0, ptr noundef %1, ptr noundef captures(none) %2) unnamed_addr #3 personality ptr @__gxx_personality_v0 {
  %4 = alloca %"class.testing::internal::GTestLog", align 4
  %5 = load ptr, ptr %2, align 8, !tbaa !191
  %.not = icmp eq ptr %5, null
  br i1 %.not, label %22, label %6

6:                                                ; preds = %3
  call void @llvm.lifetime.start.p0(i64 4, ptr nonnull %4) #57
  call void @_ZN7testing8internal8GTestLogC1ENS0_16GTestLogSeverityEPKci(ptr noundef nonnull align 4 dereferenceable(4) %4, i32 noundef 3, ptr noundef nonnull @.str.57, i32 noundef 1155)
  %7 = invoke noundef nonnull align 8 dereferenceable(8) ptr @_ZSt16__ostream_insertIcSt11char_traitsIcEERSt13basic_ostreamIT_T0_ES6_PKS3_l(ptr noundef nonnull align 8 dereferenceable(8) @_ZSt4cerr, ptr noundef nonnull @.str.428, i64 noundef 9)
          to label %_ZStlsISt11char_traitsIcEERSt13basic_ostreamIcT_ES5_PKc.exit unwind label %20

_ZStlsISt11char_traitsIcEERSt13basic_ostreamIcT_ES5_PKc.exit: ; preds = %6
  %.not.i = icmp eq ptr %1, null
  br i1 %.not.i, label %8, label %16

8:                                                ; preds = %_ZStlsISt11char_traitsIcEERSt13basic_ostreamIcT_ES5_PKc.exit
  %9 = load ptr, ptr @_ZSt4cerr, align 8, !tbaa !32
  %10 = getelementptr i8, ptr %9, i64 -24
  %11 = load i64, ptr %10, align 8
  %12 = getelementptr inbounds i8, ptr @_ZSt4cerr, i64 %11
  %13 = getelementptr inbounds nuw i8, ptr %12, i64 32
  %14 = load i32, ptr %13, align 8, !tbaa !873
  %15 = or i32 %14, 1
  invoke void @_ZNSt9basic_iosIcSt11char_traitsIcEE5clearESt12_Ios_Iostate(ptr noundef nonnull align 8 dereferenceable(264) %12, i32 noundef %15)
          to label %_ZStlsISt11char_traitsIcEERSt13basic_ostreamIcT_ES5_PKc.exit8 unwind label %20

16:                                               ; preds = %_ZStlsISt11char_traitsIcEERSt13basic_ostreamIcT_ES5_PKc.exit
  %17 = call noundef i64 @strlen(ptr noundef nonnull dereferenceable(1) %1) #57
  %18 = invoke noundef nonnull align 8 dereferenceable(8) ptr @_ZSt16__ostream_insertIcSt11char_traitsIcEERSt13basic_ostreamIT_T0_ES6_PKS3_l(ptr noundef nonnull align 8 dereferenceable(8) @_ZSt4cerr, ptr noundef nonnull %1, i64 noundef %17)
          to label %_ZStlsISt11char_traitsIcEERSt13basic_ostreamIcT_ES5_PKc.exit8 unwind label %20

_ZStlsISt11char_traitsIcEERSt13basic_ostreamIcT_ES5_PKc.exit8: ; preds = %8, %16
  %19 = invoke noundef nonnull align 8 dereferenceable(8) ptr @_ZSt16__ostream_insertIcSt11char_traitsIcEERSt13basic_ostreamIT_T0_ES6_PKS3_l(ptr noundef nonnull align 8 dereferenceable(8) @_ZSt4cerr, ptr noundef nonnull @.str.429, i64 noundef 30)
          to label %_ZStlsISt11char_traitsIcEERSt13basic_ostreamIcT_ES5_PKc.exit10 unwind label %20

_ZStlsISt11char_traitsIcEERSt13basic_ostreamIcT_ES5_PKc.exit10: ; preds = %_ZStlsISt11char_traitsIcEERSt13basic_ostreamIcT_ES5_PKc.exit8
  call void @_ZN7testing8internal8GTestLogD1Ev(ptr noundef nonnull align 4 dereferenceable(4) %4) #57
  call void @llvm.lifetime.end.p0(i64 4, ptr nonnull %4) #57
  br label %22

20:                                               ; preds = %_ZStlsISt11char_traitsIcEERSt13basic_ostreamIcT_ES5_PKc.exit8, %16, %8, %6
  %21 = landingpad { ptr, i32 }
          cleanup
  call void @_ZN7testing8internal8GTestLogD1Ev(ptr noundef nonnull align 4 dereferenceable(4) %4) #57
  call void @llvm.lifetime.end.p0(i64 4, ptr nonnull %4) #57
  br label %27

22:                                               ; preds = %_ZStlsISt11char_traitsIcEERSt13basic_ostreamIcT_ES5_PKc.exit10, %3
  %23 = call noalias noundef nonnull dereferenceable(40) ptr @_Znwm(i64 noundef 40) #56
  invoke void @_ZN7testing8internal14CapturedStreamC2Ei(ptr noundef nonnull align 8 dereferenceable(40) %23, i32 noundef %0)
          to label %24 unwind label %25

24:                                               ; preds = %22
  store ptr %23, ptr %2, align 8, !tbaa !191
  ret void

25:                                               ; preds = %22
  %26 = landingpad { ptr, i32 }
          cleanup
  call void @_ZdlPvm(ptr noundef nonnull %23, i64 noundef 40) #58
  br label %27

27:                                               ; preds = %25, %20
  %.pn = phi { ptr, i32 } [ %26, %25 ], [ %21, %20 ]
  resume { ptr, i32 } %.pn
}